target datalayout = "e-m:e-p270:32:32-p271:32:32-p272:64:64-i64:64-i128:128-f80:128-n8:16:32:64-S128"
target triple = "x86_64-pc-linux-gnu"

%struct._zval_struct = type { %union._zend_value, %union.anon.0, %union.anon.3 }
%union._zend_value = type { i64 }
%union.anon.0 = type { i32 }
%union.anon.3 = type { i32 }
%struct._zend_refcounted_h = type { i32, %union.anon }
%union.anon = type { i32 }
%struct._zend_object = type { %struct._zend_refcounted_h, i32, ptr, ptr, ptr, [1 x %struct._zval_struct] }
%struct._php_timezone_obj = type { i8, i32, %union.anon.9, %struct._zend_object }
%union.anon.9 = type { %struct._timelib_abbr_info }
%struct._timelib_abbr_info = type { i64, ptr, i32 }

@.str.151 = private unnamed_addr constant [9 x i8] c"timezone\00", align 1
@.str.340 = private unnamed_addr constant [14 x i8] c"timezone_type\00", align 1

; Function Attrs: nounwind uwtable
define internal void @date_timezone_object_to_hash(ptr noundef %0, ptr noundef %1) #0 {
  %3 = alloca ptr, align 8
  %4 = alloca ptr, align 8
  %5 = alloca %struct._zval_struct, align 8
  %6 = alloca ptr, align 8
  store ptr %0, ptr %3, align 8
  store ptr %1, ptr %4, align 8
  br label %7

7:                                                ; preds = %2
  store ptr %5, ptr %6, align 8
  %8 = load ptr, ptr %3, align 8
  %9 = getelementptr inbounds %struct._php_timezone_obj, ptr %8, i32 0, i32 1
  %10 = load i32, ptr %9, align 4
  %11 = sext i32 %10 to i64
  %12 = load ptr, ptr %6, align 8
  %13 = getelementptr inbounds %struct._zval_struct, ptr %12, i32 0, i32 0
  store i64 %11, ptr %13, align 8
  %14 = load ptr, ptr %6, align 8
  %15 = getelementptr inbounds %struct._zval_struct, ptr %14, i32 0, i32 1
  store i32 4, ptr %15, align 8
  br label %16

16:                                               ; preds = %7
  %17 = load ptr, ptr %4, align 8
  %18 = call ptr @zend_hash_str_update(ptr noundef %17, ptr noundef @.str.340, i64 noundef 13, ptr noundef %5)
  %19 = load ptr, ptr %3, align 8
  call void @php_timezone_to_string(ptr noundef %19, ptr noundef %5)
  %20 = load ptr, ptr %4, align 8
  %21 = call ptr @zend_hash_str_update(ptr noundef %20, ptr noundef @.str.151, i64 noundef 8, ptr noundef %5)
  ret void
}

; Function Attrs: nounwind uwtable
define internal ptr @php_timezone_obj_from_obj(ptr noundef %0) #0 {
  %2 = alloca ptr, align 8
  store ptr %0, ptr %2, align 8
  %3 = load ptr, ptr %2, align 8
  %4 = getelementptr inbounds i8, ptr %3, i64 -32
  ret ptr %4
}

; Function Attrs: nounwind uwtable
define internal ptr @date_object_get_properties_for_timezone(ptr noundef %0, i32 noundef %1) #0 {
  %3 = alloca ptr, align 8
  %4 = alloca ptr, align 8
  %5 = alloca i32, align 4
  %6 = alloca ptr, align 8
  %7 = alloca ptr, align 8
  store ptr %0, ptr %4, align 8
  store i32 %1, ptr %5, align 4
  %8 = load i32, ptr %5, align 4
  switch i32 %8, label %10 [
    i32 0, label %9
    i32 2, label %9
    i32 3, label %9
    i32 4, label %9
    i32 1, label %9
  ]

9:                                                ; preds = %2, %2, %2, %2, %2
  br label %14

10:                                               ; preds = %2
  %11 = load ptr, ptr %4, align 8
  %12 = load i32, ptr %5, align 4
  %13 = call ptr @zend_std_get_properties_for(ptr noundef %11, i32 noundef %12)
  store ptr %13, ptr %3, align 8
  br label %30

14:                                               ; preds = %9
  %15 = load ptr, ptr %4, align 8
  %16 = call ptr @php_timezone_obj_from_obj(ptr noundef %15)
  store ptr %16, ptr %7, align 8
  %17 = load ptr, ptr %4, align 8
  %18 = call ptr @zend_std_get_properties(ptr noundef %17)
  %19 = call ptr @zend_array_dup(ptr noundef %18)
  store ptr %19, ptr %6, align 8
  %20 = load ptr, ptr %7, align 8
  %21 = getelementptr inbounds %struct._php_timezone_obj, ptr %20, i32 0, i32 0
  %22 = load i8, ptr %21, align 8
  %23 = trunc i8 %22 to i1
  br i1 %23, label %26, label %24

24:                                               ; preds = %14
  %25 = load ptr, ptr %6, align 8
  store ptr %25, ptr %3, align 8
  br label %30

26:                                               ; preds = %14
  %27 = load ptr, ptr %7, align 8
  %28 = load ptr, ptr %6, align 8
  call void @date_timezone_object_to_hash(ptr noundef %27, ptr noundef %28)
  %29 = load ptr, ptr %6, align 8
  store ptr %29, ptr %3, align 8
  br label %30

30:                                               ; preds = %26, %24, %10
  %31 = load ptr, ptr %3, align 8
  ret ptr %31
}