; Function Attrs: nounwind uwtable
define internal ptr @date_object_get_properties_for_timezone(ptr noundef %0, i32 noundef %1) #0 {
  %3 = alloca %struct._zval_struct, align 8
  %switch = icmp ult i32 %1, 5
  br i1 %switch, label %6, label %4

4:                                                ; preds = %2
  %5 = tail call ptr @zend_std_get_properties_for(ptr noundef %0, i32 noundef %1) #25
  br label %19

6:                                                ; preds = %2
  %7 = getelementptr inbounds i8, ptr %0, i64 -32
  %8 = tail call ptr @zend_std_get_properties(ptr noundef %0) #25
  %9 = tail call ptr @zend_array_dup(ptr noundef %8) #25
  %10 = load i8, ptr %7, align 8
  %11 = and i8 %10, 1
  %.not = icmp eq i8 %11, 0
  br i1 %.not, label %19, label %12

12:                                               ; preds = %6
  call void @llvm.lifetime.start.p0(i64 16, ptr nonnull %3)
  %13 = getelementptr inbounds i8, ptr %0, i64 -28
  %14 = load i32, ptr %13, align 4
  %15 = sext i32 %14 to i64
  store i64 %15, ptr %3, align 8
  %16 = getelementptr inbounds i8, ptr %3, i64 8
  store i32 4, ptr %16, align 8
  %17 = call ptr @zend_hash_str_update(ptr noundef %9, ptr noundef nonnull @.str.340, i64 noundef 13, ptr noundef nonnull %3) #25
  call fastcc void @php_timezone_to_string(ptr noundef nonnull %7, ptr noundef nonnull %3)
  %18 = call ptr @zend_hash_str_update(ptr noundef %9, ptr noundef nonnull @.str.151, i64 noundef 8, ptr noundef nonnull %3) #25
  call void @llvm.lifetime.end.p0(i64 16, ptr nonnull %3)
  br label %19

19:                                               ; preds = %6, %12, %4
  %.0 = phi ptr [ %5, %4 ], [ %9, %12 ], [ %9, %6 ]
  ret ptr %.0
}